target datalayout = "e-m:e-p270:32:32-p271:32:32-p272:64:64-i64:64-i128:128-f80:128-n8:16:32:64-S128"
target triple = "x86_64-pc-linux-gnu"

%struct.H5PL_plugin_t = type { i32, %union.H5PL_key_t, ptr }
%union.H5PL_key_t = type { %struct.H5PL_vol_key_t }
%struct.H5PL_vol_key_t = type { i32, %union.anon }
%union.anon = type { ptr }

@H5PL_init_g = external global i8, align 1
@H5_libterm_g = external global i8, align 1
@H5PL_num_plugins_g = internal global i32 0, align 4
@H5PL_cache_capacity_g = internal global i32 0, align 4
@H5PL_cache_g = internal global ptr null, align 8
@.str = private unnamed_addr constant [110 x i8] c"generated/home/dtcxzyw/WorkSpace/Projects/compilers/llvm-opt-benchmark/bench/hdf5/hdf5/src/H5PLplugin_cache.c\00", align 1
@H5E_PLUGIN_g = external global i64, align 8
@H5E_CANTALLOC_g = external global i64, align 8
@__func__.H5PL__add_plugin = private unnamed_addr constant [17 x i8] c"H5PL__add_plugin\00", align 1
@.str.2 = private unnamed_addr constant [26 x i8] c"can't expand plugin cache\00", align 1
@__func__.H5PL__expand_cache = private unnamed_addr constant [19 x i8] c"H5PL__expand_cache\00", align 1
@.str.7 = private unnamed_addr constant [53 x i8] c"allocating additional memory for plugin cache failed\00", align 1

; Function Attrs: nounwind uwtable
define internal i32 @H5PL__expand_cache() #0 {
  %1 = alloca i32, align 4
  %2 = alloca i8, align 1
  call void @llvm.lifetime.start.p0(i64 4, ptr %1) #9
  store i32 0, ptr %1, align 4, !tbaa !3
  call void @llvm.lifetime.start.p0(i64 1, ptr %2) #9
  store i8 0, ptr %2, align 1, !tbaa !7
  %3 = load i8, ptr @H5PL_init_g, align 1, !tbaa !7, !range !9, !noundef !10
  %4 = trunc i8 %3 to i1
  br i1 %4, label %9, label %5

5:                                                ; preds = %0
  %6 = load i8, ptr @H5_libterm_g, align 1, !tbaa !7, !range !9, !noundef !10
  %7 = trunc i8 %6 to i1
  %8 = xor i1 %7, true
  br label %9

9:                                                ; preds = %5, %0
  %10 = phi i1 [ true, %0 ], [ %8, %5 ]
  %11 = xor i1 %10, true
  %12 = xor i1 %11, true
  %13 = zext i1 %12 to i32
  %14 = sext i32 %13 to i64
  %15 = call i64 @llvm.expect.i64(i64 %14, i64 1)
  %16 = icmp ne i64 %15, 0
  br i1 %16, label %17, label %57

17:                                               ; preds = %9
  %18 = load i32, ptr @H5PL_cache_capacity_g, align 4, !tbaa !3
  %19 = add i32 %18, 16
  store i32 %19, ptr @H5PL_cache_capacity_g, align 4, !tbaa !3
  %20 = load ptr, ptr @H5PL_cache_g, align 8, !tbaa !11
  %21 = load i32, ptr @H5PL_cache_capacity_g, align 4, !tbaa !3
  %22 = zext i32 %21 to i64
  %23 = mul i64 %22, 32
  %24 = call ptr @H5MM_realloc(ptr noundef %20, i64 noundef %23)
  store ptr %24, ptr @H5PL_cache_g, align 8, !tbaa !11
  %25 = icmp eq ptr null, %24
  br i1 %25, label %26, label %45

26:                                               ; preds = %17
  br label %27

27:                                               ; preds = %26
  br label %28

28:                                               ; preds = %27
  br label %29

29:                                               ; preds = %28
  %30 = load i64, ptr @H5E_PLUGIN_g, align 8, !tbaa !14
  %31 = load i64, ptr @H5E_CANTALLOC_g, align 8, !tbaa !14
  %32 = call i32 (ptr, ptr, i32, i64, i64, ptr, ...) @H5E_printf_stack(ptr noundef @.str, ptr noundef @__func__.H5PL__expand_cache, i32 noundef 185, i64 noundef %30, i64 noundef %31, ptr noundef @.str.7)
  br label %33

33:                                               ; preds = %29
  br label %34

34:                                               ; preds = %33
  store i8 1, ptr %2, align 1, !tbaa !7
  %35 = load i8, ptr %2, align 1, !tbaa !7, !range !9, !noundef !10
  %36 = trunc i8 %35 to i1
  %37 = zext i1 %36 to i8
  store i8 %37, ptr %2, align 1, !tbaa !7
  br label %38

38:                                               ; preds = %34
  br label %39

39:                                               ; preds = %38
  br label %40

40:                                               ; preds = %39
  store i32 -1, ptr %1, align 4, !tbaa !3
  br label %50

41:                                               ; No predecessors!
  br label %42

42:                                               ; preds = %41
  br label %43

43:                                               ; preds = %42
  br label %44

44:                                               ; preds = %43
  br label %45

45:                                               ; preds = %44, %17
  %46 = load ptr, ptr @H5PL_cache_g, align 8, !tbaa !11
  %47 = load i32, ptr @H5PL_num_plugins_g, align 4, !tbaa !3
  %48 = zext i32 %47 to i64
  %49 = getelementptr inbounds nuw %struct.H5PL_plugin_t, ptr %46, i64 %48
  call void @llvm.memset.p0.i64(ptr align 8 %49, i8 0, i64 512, i1 false)
  br label %50

50:                                               ; preds = %45, %40
  %51 = load i32, ptr %1, align 4, !tbaa !3
  %52 = icmp eq i32 -1, %51
  br i1 %52, label %53, label %56

53:                                               ; preds = %50
  %54 = load i32, ptr @H5PL_cache_capacity_g, align 4, !tbaa !3
  %55 = sub i32 %54, 16
  store i32 %55, ptr @H5PL_cache_capacity_g, align 4, !tbaa !3
  br label %56

56:                                               ; preds = %53, %50
  br label %57

57:                                               ; preds = %56, %9
  %58 = load i32, ptr %1, align 4, !tbaa !3
  call void @llvm.lifetime.end.p0(i64 1, ptr %2) #9
  call void @llvm.lifetime.end.p0(i64 4, ptr %1) #9
  ret i32 %58
}

; Function Attrs: nounwind uwtable
define i32 @H5PL__add_plugin(i32 noundef %0, ptr noundef %1, ptr noundef %2) #0 {
  %4 = alloca i32, align 4
  %5 = alloca ptr, align 8
  %6 = alloca ptr, align 8
  %7 = alloca i32, align 4
  %8 = alloca i8, align 1
  store i32 %0, ptr %4, align 4, !tbaa !3
  store ptr %1, ptr %5, align 8, !tbaa !22
  store ptr %2, ptr %6, align 8, !tbaa !24
  call void @llvm.lifetime.start.p0(i64 4, ptr %7) #9
  store i32 0, ptr %7, align 4, !tbaa !3
  call void @llvm.lifetime.start.p0(i64 1, ptr %8) #9
  store i8 0, ptr %8, align 1, !tbaa !7
  %9 = load i8, ptr @H5PL_init_g, align 1, !tbaa !7, !range !9, !noundef !10
  %10 = trunc i8 %9 to i1
  br i1 %10, label %15, label %11

11:                                               ; preds = %3
  %12 = load i8, ptr @H5_libterm_g, align 1, !tbaa !7, !range !9, !noundef !10
  %13 = trunc i8 %12 to i1
  %14 = xor i1 %13, true
  br label %15

15:                                               ; preds = %11, %3
  %16 = phi i1 [ true, %3 ], [ %14, %11 ]
  %17 = xor i1 %16, true
  %18 = xor i1 %17, true
  %19 = zext i1 %18 to i32
  %20 = sext i32 %19 to i64
  %21 = call i64 @llvm.expect.i64(i64 %20, i64 1)
  %22 = icmp ne i64 %21, 0
  br i1 %22, label %23, label %72

23:                                               ; preds = %15
  %24 = load i32, ptr @H5PL_num_plugins_g, align 4, !tbaa !3
  %25 = load i32, ptr @H5PL_cache_capacity_g, align 4, !tbaa !3
  %26 = icmp uge i32 %24, %25
  br i1 %26, label %27, label %50

27:                                               ; preds = %23
  %28 = call i32 @H5PL__expand_cache()
  %29 = icmp slt i32 %28, 0
  br i1 %29, label %30, label %49

30:                                               ; preds = %27
  br label %31

31:                                               ; preds = %30
  br label %32

32:                                               ; preds = %31
  br label %33

33:                                               ; preds = %32
  %34 = load i64, ptr @H5E_PLUGIN_g, align 8, !tbaa !14
  %35 = load i64, ptr @H5E_CANTALLOC_g, align 8, !tbaa !14
  %36 = call i32 (ptr, ptr, i32, i64, i64, ptr, ...) @H5E_printf_stack(ptr noundef @.str, ptr noundef @__func__.H5PL__add_plugin, i32 noundef 217, i64 noundef %34, i64 noundef %35, ptr noundef @.str.2)
  br label %37

37:                                               ; preds = %33
  br label %38

38:                                               ; preds = %37
  store i8 1, ptr %8, align 1, !tbaa !7
  %39 = load i8, ptr %8, align 1, !tbaa !7, !range !9, !noundef !10
  %40 = trunc i8 %39 to i1
  %41 = zext i1 %40 to i8
  store i8 %41, ptr %8, align 1, !tbaa !7
  br label %42

42:                                               ; preds = %38
  br label %43

43:                                               ; preds = %42
  br label %44

44:                                               ; preds = %43
  store i32 -1, ptr %7, align 4, !tbaa !3
  br label %71

45:                                               ; No predecessors!
  br label %46

46:                                               ; preds = %45
  br label %47

47:                                               ; preds = %46
  br label %48

48:                                               ; preds = %47
  br label %49

49:                                               ; preds = %48, %27
  br label %50

50:                                               ; preds = %49, %23
  %51 = load i32, ptr %4, align 4, !tbaa !3
  %52 = load ptr, ptr @H5PL_cache_g, align 8, !tbaa !11
  %53 = load i32, ptr @H5PL_num_plugins_g, align 4, !tbaa !3
  %54 = zext i32 %53 to i64
  %55 = getelementptr inbounds nuw %struct.H5PL_plugin_t, ptr %52, i64 %54
  %56 = getelementptr inbounds nuw %struct.H5PL_plugin_t, ptr %55, i32 0, i32 0
  store i32 %51, ptr %56, align 8, !tbaa !25
  %57 = load ptr, ptr @H5PL_cache_g, align 8, !tbaa !11
  %58 = load i32, ptr @H5PL_num_plugins_g, align 4, !tbaa !3
  %59 = zext i32 %58 to i64
  %60 = getelementptr inbounds nuw %struct.H5PL_plugin_t, ptr %57, i64 %59
  %61 = getelementptr inbounds nuw %struct.H5PL_plugin_t, ptr %60, i32 0, i32 1
  %62 = load ptr, ptr %5, align 8, !tbaa !22
  call void @llvm.memcpy.p0.p0.i64(ptr align 8 %61, ptr align 8 %62, i64 16, i1 false), !tbaa.struct !26
  %63 = load ptr, ptr %6, align 8, !tbaa !24
  %64 = load ptr, ptr @H5PL_cache_g, align 8, !tbaa !11
  %65 = load i32, ptr @H5PL_num_plugins_g, align 4, !tbaa !3
  %66 = zext i32 %65 to i64
  %67 = getelementptr inbounds nuw %struct.H5PL_plugin_t, ptr %64, i64 %66
  %68 = getelementptr inbounds nuw %struct.H5PL_plugin_t, ptr %67, i32 0, i32 2
  store ptr %63, ptr %68, align 8, !tbaa !18
  %69 = load i32, ptr @H5PL_num_plugins_g, align 4, !tbaa !3
  %70 = add i32 %69, 1
  store i32 %70, ptr @H5PL_num_plugins_g, align 4, !tbaa !3
  br label %71

71:                                               ; preds = %50, %44
  br label %72

72:                                               ; preds = %71, %15
  %73 = load i32, ptr %7, align 4, !tbaa !3
  call void @llvm.lifetime.end.p0(i64 1, ptr %8) #9
  call void @llvm.lifetime.end.p0(i64 4, ptr %7) #9
  ret i32 %73
}