; Function Attrs: nounwind uwtable
define range(i32 -1, 1) i32 @H5PL__add_plugin(i32 noundef %0, ptr noundef readonly captures(none) %1, ptr noundef %2) local_unnamed_addr #0 {
  %4 = load i8, ptr @H5PL_init_g, align 1, !tbaa !3, !range !7, !noundef !8
  %5 = trunc nuw i8 %4 to i1
  %6 = load i8, ptr @H5_libterm_g, align 1, !range !7
  %7 = trunc nuw i8 %6 to i1
  %8 = xor i1 %7, true
  %9 = select i1 %5, i1 true, i1 %8
  br i1 %9, label %10, label %38, !prof !9

10:                                               ; preds = %3
  %11 = load i32, ptr @H5PL_num_plugins_g, align 4, !tbaa !10
  %12 = load i32, ptr @H5PL_cache_capacity_g, align 4, !tbaa !10
  %.not = icmp ult i32 %11, %12
  %.pre = load ptr, ptr @H5PL_cache_g, align 8, !tbaa !12
  br i1 %.not, label %._crit_edge, label %13

._crit_edge:                                      ; preds = %10
  %.pre5 = zext i32 %11 to i64
  br label %31

13:                                               ; preds = %10
  %14 = add i32 %12, 16
  store i32 %14, ptr @H5PL_cache_capacity_g, align 4, !tbaa !10
  %15 = zext i32 %14 to i64
  %16 = shl nuw nsw i64 %15, 5
  %17 = tail call ptr @H5MM_realloc(ptr noundef %.pre, i64 noundef %16) #8
  store ptr %17, ptr @H5PL_cache_g, align 8, !tbaa !12
  %18 = icmp eq ptr %17, null
  br i1 %18, label %22, label %H5PL__expand_cache.exit

H5PL__expand_cache.exit:                          ; preds = %13
  %19 = load i32, ptr @H5PL_num_plugins_g, align 4, !tbaa !10
  %20 = zext i32 %19 to i64
  %21 = getelementptr inbounds nuw %struct.H5PL_plugin_t, ptr %17, i64 %20
  tail call void @llvm.memset.p0.i64(ptr noundef nonnull align 8 dereferenceable(512) %21, i8 0, i64 512, i1 false)
  br label %31

22:                                               ; preds = %13
  %23 = load i64, ptr @H5E_PLUGIN_g, align 8, !tbaa !15
  %24 = load i64, ptr @H5E_CANTALLOC_g, align 8, !tbaa !15
  %25 = tail call i32 (ptr, ptr, i32, i64, i64, ptr, ...) @H5E_printf_stack(ptr noundef nonnull @.str, ptr noundef nonnull @__func__.H5PL__expand_cache, i32 noundef 185, i64 noundef %23, i64 noundef %24, ptr noundef nonnull @.str.7) #8
  %26 = load i32, ptr @H5PL_cache_capacity_g, align 4, !tbaa !10
  %27 = add i32 %26, -16
  store i32 %27, ptr @H5PL_cache_capacity_g, align 4, !tbaa !10
  %28 = load i64, ptr @H5E_PLUGIN_g, align 8, !tbaa !15
  %29 = load i64, ptr @H5E_CANTALLOC_g, align 8, !tbaa !15
  %30 = tail call i32 (ptr, ptr, i32, i64, i64, ptr, ...) @H5E_printf_stack(ptr noundef nonnull @.str, ptr noundef nonnull @__func__.H5PL__add_plugin, i32 noundef 217, i64 noundef %28, i64 noundef %29, ptr noundef nonnull @.str.2) #8
  br label %38

31:                                               ; preds = %._crit_edge, %H5PL__expand_cache.exit
  %.pre-phi = phi i64 [ %.pre5, %._crit_edge ], [ %20, %H5PL__expand_cache.exit ]
  %32 = phi i32 [ %11, %._crit_edge ], [ %19, %H5PL__expand_cache.exit ]
  %33 = phi ptr [ %.pre, %._crit_edge ], [ %17, %H5PL__expand_cache.exit ]
  %34 = getelementptr inbounds nuw %struct.H5PL_plugin_t, ptr %33, i64 %.pre-phi
  store i32 %0, ptr %34, align 8, !tbaa !21
  %35 = getelementptr inbounds nuw %struct.H5PL_plugin_t, ptr %33, i64 %.pre-phi, i32 1
  tail call void @llvm.memcpy.p0.p0.i64(ptr noundef nonnull align 8 dereferenceable(16) %35, ptr noundef nonnull align 8 dereferenceable(16) %1, i64 16, i1 false), !tbaa.struct !22
  %36 = getelementptr inbounds nuw %struct.H5PL_plugin_t, ptr %33, i64 %.pre-phi, i32 2
  store ptr %2, ptr %36, align 8, !tbaa !17
  %37 = add i32 %32, 1
  store i32 %37, ptr @H5PL_num_plugins_g, align 4, !tbaa !10
  br label %38

38:                                               ; preds = %22, %31, %3
  %.0 = phi i32 [ -1, %22 ], [ 0, %31 ], [ 0, %3 ]
  ret i32 %.0
}